ARM GAS  C:\Users\user-pc\AppData\Local\Temp\ccOyRBUZ.s 			page 1


   1              		.cpu cortex-m4
   2              		.eabi_attribute 27, 1
   3              		.eabi_attribute 28, 1
   4              		.eabi_attribute 20, 1
   5              		.eabi_attribute 21, 1
   6              		.eabi_attribute 23, 3
   7              		.eabi_attribute 24, 1
   8              		.eabi_attribute 25, 1
   9              		.eabi_attribute 26, 1
  10              		.eabi_attribute 30, 1
  11              		.eabi_attribute 34, 1
  12              		.eabi_attribute 18, 4
  13              		.file	"MPU9250.c"
  14              		.text
  15              	.Ltext0:
  16              		.cfi_sections	.debug_frame
  17              		.section	.text.MPU9250_Read_Register,"ax",%progbits
  18              		.align	1
  19              		.global	MPU9250_Read_Register
  20              		.arch armv7e-m
  21              		.syntax unified
  22              		.thumb
  23              		.thumb_func
  24              		.fpu fpv4-sp-d16
  26              	MPU9250_Read_Register:
  27              	.LVL0:
  28              	.LFB235:
  29              		.file 1 "Core/Src/MPU9250.c"
   1:Core/Src/MPU9250.c **** #include "MPU9250.h"
   2:Core/Src/MPU9250.c **** 
   3:Core/Src/MPU9250.c **** void MPU9250_Read_Register(uint8_t dev_addr, uint8_t reg_addr, uint8_t *data)
   4:Core/Src/MPU9250.c **** {
  30              		.loc 1 4 1 view -0
  31              		.cfi_startproc
  32              		@ args = 0, pretend = 0, frame = 0
  33              		@ frame_needed = 0, uses_anonymous_args = 0
  34              		.loc 1 4 1 is_stmt 0 view .LVU1
  35 0000 00B5     		push	{lr}
  36              	.LCFI0:
  37              		.cfi_def_cfa_offset 4
  38              		.cfi_offset 14, -4
  39 0002 85B0     		sub	sp, sp, #20
  40              	.LCFI1:
  41              		.cfi_def_cfa_offset 24
   5:Core/Src/MPU9250.c ****     HAL_I2C_Mem_Read(&hi2c2, dev_addr, reg_addr, I2C_MEMADD_SIZE_8BIT, data, 1, HAL_MAX_DELAY);
  42              		.loc 1 5 5 is_stmt 1 view .LVU2
  43 0004 4FF0FF33 		mov	r3, #-1
  44 0008 0293     		str	r3, [sp, #8]
  45 000a 0123     		movs	r3, #1
  46 000c 0193     		str	r3, [sp, #4]
  47 000e 0092     		str	r2, [sp]
  48 0010 0A46     		mov	r2, r1
  49              	.LVL1:
  50              		.loc 1 5 5 is_stmt 0 view .LVU3
  51 0012 0146     		mov	r1, r0
  52              	.LVL2:
  53              		.loc 1 5 5 view .LVU4
ARM GAS  C:\Users\user-pc\AppData\Local\Temp\ccOyRBUZ.s 			page 2


  54 0014 0248     		ldr	r0, .L3
  55              	.LVL3:
  56              		.loc 1 5 5 view .LVU5
  57 0016 FFF7FEFF 		bl	HAL_I2C_Mem_Read
  58              	.LVL4:
   6:Core/Src/MPU9250.c **** }
  59              		.loc 1 6 1 view .LVU6
  60 001a 05B0     		add	sp, sp, #20
  61              	.LCFI2:
  62              		.cfi_def_cfa_offset 4
  63              		@ sp needed
  64 001c 5DF804FB 		ldr	pc, [sp], #4
  65              	.L4:
  66              		.align	2
  67              	.L3:
  68 0020 00000000 		.word	hi2c2
  69              		.cfi_endproc
  70              	.LFE235:
  72              		.section	.text.MPU9250_Read_Registers,"ax",%progbits
  73              		.align	1
  74              		.global	MPU9250_Read_Registers
  75              		.syntax unified
  76              		.thumb
  77              		.thumb_func
  78              		.fpu fpv4-sp-d16
  80              	MPU9250_Read_Registers:
  81              	.LVL5:
  82              	.LFB236:
   7:Core/Src/MPU9250.c **** 
   8:Core/Src/MPU9250.c **** void MPU9250_Read_Registers(uint8_t dev_addr, uint8_t reg_addr, uint8_t *data, uint8_t length)
   9:Core/Src/MPU9250.c **** {
  83              		.loc 1 9 1 is_stmt 1 view -0
  84              		.cfi_startproc
  85              		@ args = 0, pretend = 0, frame = 0
  86              		@ frame_needed = 0, uses_anonymous_args = 0
  87              		.loc 1 9 1 is_stmt 0 view .LVU8
  88 0000 10B5     		push	{r4, lr}
  89              	.LCFI3:
  90              		.cfi_def_cfa_offset 8
  91              		.cfi_offset 4, -8
  92              		.cfi_offset 14, -4
  93 0002 84B0     		sub	sp, sp, #16
  94              	.LCFI4:
  95              		.cfi_def_cfa_offset 24
  10:Core/Src/MPU9250.c ****     HAL_I2C_Mem_Read(&hi2c2, dev_addr, reg_addr, I2C_MEMADD_SIZE_8BIT, data, length, HAL_MAX_DELAY)
  96              		.loc 1 10 5 is_stmt 1 view .LVU9
  97 0004 4FF0FF34 		mov	r4, #-1
  98 0008 0294     		str	r4, [sp, #8]
  99 000a 0193     		str	r3, [sp, #4]
 100 000c 0092     		str	r2, [sp]
 101 000e 0123     		movs	r3, #1
 102              	.LVL6:
 103              		.loc 1 10 5 is_stmt 0 view .LVU10
 104 0010 0A46     		mov	r2, r1
 105              	.LVL7:
 106              		.loc 1 10 5 view .LVU11
 107 0012 0146     		mov	r1, r0
ARM GAS  C:\Users\user-pc\AppData\Local\Temp\ccOyRBUZ.s 			page 3


 108              	.LVL8:
 109              		.loc 1 10 5 view .LVU12
 110 0014 0248     		ldr	r0, .L7
 111              	.LVL9:
 112              		.loc 1 10 5 view .LVU13
 113 0016 FFF7FEFF 		bl	HAL_I2C_Mem_Read
 114              	.LVL10:
  11:Core/Src/MPU9250.c **** }
 115              		.loc 1 11 1 view .LVU14
 116 001a 04B0     		add	sp, sp, #16
 117              	.LCFI5:
 118              		.cfi_def_cfa_offset 8
 119              		@ sp needed
 120 001c 10BD     		pop	{r4, pc}
 121              	.L8:
 122 001e 00BF     		.align	2
 123              	.L7:
 124 0020 00000000 		.word	hi2c2
 125              		.cfi_endproc
 126              	.LFE236:
 128              		.section	.text.MPU9250_Write_Register,"ax",%progbits
 129              		.align	1
 130              		.global	MPU9250_Write_Register
 131              		.syntax unified
 132              		.thumb
 133              		.thumb_func
 134              		.fpu fpv4-sp-d16
 136              	MPU9250_Write_Register:
 137              	.LVL11:
 138              	.LFB237:
  12:Core/Src/MPU9250.c **** 
  13:Core/Src/MPU9250.c **** void MPU9250_Write_Register(uint8_t dev_addr, uint8_t reg_addr, uint8_t *data)
  14:Core/Src/MPU9250.c **** {
 139              		.loc 1 14 1 is_stmt 1 view -0
 140              		.cfi_startproc
 141              		@ args = 0, pretend = 0, frame = 0
 142              		@ frame_needed = 0, uses_anonymous_args = 0
 143              		.loc 1 14 1 is_stmt 0 view .LVU16
 144 0000 00B5     		push	{lr}
 145              	.LCFI6:
 146              		.cfi_def_cfa_offset 4
 147              		.cfi_offset 14, -4
 148 0002 85B0     		sub	sp, sp, #20
 149              	.LCFI7:
 150              		.cfi_def_cfa_offset 24
  15:Core/Src/MPU9250.c ****     HAL_I2C_Mem_Write(&hi2c2, dev_addr, reg_addr, I2C_MEMADD_SIZE_8BIT, data, 1, HAL_MAX_DELAY);
 151              		.loc 1 15 5 is_stmt 1 view .LVU17
 152 0004 4FF0FF33 		mov	r3, #-1
 153 0008 0293     		str	r3, [sp, #8]
 154 000a 0123     		movs	r3, #1
 155 000c 0193     		str	r3, [sp, #4]
 156 000e 0092     		str	r2, [sp]
 157 0010 0A46     		mov	r2, r1
 158              	.LVL12:
 159              		.loc 1 15 5 is_stmt 0 view .LVU18
 160 0012 0146     		mov	r1, r0
 161              	.LVL13:
ARM GAS  C:\Users\user-pc\AppData\Local\Temp\ccOyRBUZ.s 			page 4


 162              		.loc 1 15 5 view .LVU19
 163 0014 0248     		ldr	r0, .L11
 164              	.LVL14:
 165              		.loc 1 15 5 view .LVU20
 166 0016 FFF7FEFF 		bl	HAL_I2C_Mem_Write
 167              	.LVL15:
  16:Core/Src/MPU9250.c **** }
 168              		.loc 1 16 1 view .LVU21
 169 001a 05B0     		add	sp, sp, #20
 170              	.LCFI8:
 171              		.cfi_def_cfa_offset 4
 172              		@ sp needed
 173 001c 5DF804FB 		ldr	pc, [sp], #4
 174              	.L12:
 175              		.align	2
 176              	.L11:
 177 0020 00000000 		.word	hi2c2
 178              		.cfi_endproc
 179              	.LFE237:
 181              		.section	.text.MPU9250_Write_Registers,"ax",%progbits
 182              		.align	1
 183              		.global	MPU9250_Write_Registers
 184              		.syntax unified
 185              		.thumb
 186              		.thumb_func
 187              		.fpu fpv4-sp-d16
 189              	MPU9250_Write_Registers:
 190              	.LVL16:
 191              	.LFB238:
  17:Core/Src/MPU9250.c **** 
  18:Core/Src/MPU9250.c **** void MPU9250_Write_Registers(uint8_t dev_addr, uint8_t reg_addr, uint8_t *data, uint8_t length)
  19:Core/Src/MPU9250.c **** {
 192              		.loc 1 19 1 is_stmt 1 view -0
 193              		.cfi_startproc
 194              		@ args = 0, pretend = 0, frame = 0
 195              		@ frame_needed = 0, uses_anonymous_args = 0
 196              		.loc 1 19 1 is_stmt 0 view .LVU23
 197 0000 10B5     		push	{r4, lr}
 198              	.LCFI9:
 199              		.cfi_def_cfa_offset 8
 200              		.cfi_offset 4, -8
 201              		.cfi_offset 14, -4
 202 0002 84B0     		sub	sp, sp, #16
 203              	.LCFI10:
 204              		.cfi_def_cfa_offset 24
  20:Core/Src/MPU9250.c ****     HAL_I2C_Mem_Write(&hi2c2, dev_addr, reg_addr, I2C_MEMADD_SIZE_8BIT, data, length, HAL_MAX_DELAY
 205              		.loc 1 20 5 is_stmt 1 view .LVU24
 206 0004 4FF0FF34 		mov	r4, #-1
 207 0008 0294     		str	r4, [sp, #8]
 208 000a 0193     		str	r3, [sp, #4]
 209 000c 0092     		str	r2, [sp]
 210 000e 0123     		movs	r3, #1
 211              	.LVL17:
 212              		.loc 1 20 5 is_stmt 0 view .LVU25
 213 0010 0A46     		mov	r2, r1
 214              	.LVL18:
 215              		.loc 1 20 5 view .LVU26
ARM GAS  C:\Users\user-pc\AppData\Local\Temp\ccOyRBUZ.s 			page 5


 216 0012 0146     		mov	r1, r0
 217              	.LVL19:
 218              		.loc 1 20 5 view .LVU27
 219 0014 0248     		ldr	r0, .L15
 220              	.LVL20:
 221              		.loc 1 20 5 view .LVU28
 222 0016 FFF7FEFF 		bl	HAL_I2C_Mem_Write
 223              	.LVL21:
  21:Core/Src/MPU9250.c **** }
 224              		.loc 1 21 1 view .LVU29
 225 001a 04B0     		add	sp, sp, #16
 226              	.LCFI11:
 227              		.cfi_def_cfa_offset 8
 228              		@ sp needed
 229 001c 10BD     		pop	{r4, pc}
 230              	.L16:
 231 001e 00BF     		.align	2
 232              	.L15:
 233 0020 00000000 		.word	hi2c2
 234              		.cfi_endproc
 235              	.LFE238:
 237              		.section	.text.MPU9250_Initialise,"ax",%progbits
 238              		.align	1
 239              		.global	MPU9250_Initialise
 240              		.syntax unified
 241              		.thumb
 242              		.thumb_func
 243              		.fpu fpv4-sp-d16
 245              	MPU9250_Initialise:
 246              	.LVL22:
 247              	.LFB239:
  22:Core/Src/MPU9250.c **** 
  23:Core/Src/MPU9250.c **** void MPU9250_Initialise(MPU9250 *dev)
  24:Core/Src/MPU9250.c **** {
 248              		.loc 1 24 1 is_stmt 1 view -0
 249              		.cfi_startproc
 250              		@ args = 0, pretend = 0, frame = 8
 251              		@ frame_needed = 0, uses_anonymous_args = 0
 252              		.loc 1 24 1 is_stmt 0 view .LVU31
 253 0000 00B5     		push	{lr}
 254              	.LCFI12:
 255              		.cfi_def_cfa_offset 4
 256              		.cfi_offset 14, -4
 257 0002 83B0     		sub	sp, sp, #12
 258              	.LCFI13:
 259              		.cfi_def_cfa_offset 16
  25:Core/Src/MPU9250.c ****     /*uint8_t CNTL1[2] = {0x0A, 0x1F};
  26:Core/Src/MPU9250.c ****     uint8_t ASAX = 0x10;
  27:Core/Src/MPU9250.c **** 
  28:Core/Src/MPU9250.c ****     HAL_I2C_Master_Transmit(&hi2c2, MAG_ADDR << 1, &CNTL1[0], sizeof(CNTL1), 10);
  29:Core/Src/MPU9250.c ****     HAL_I2C_Master_Transmit(&hi2c2, MAG_ADDR << 1, &ASAX, sizeof(ASAX), 10);
  30:Core/Src/MPU9250.c ****     HAL_I2C_Master_Receive(&hi2c2, MAG_ADDR << 1, &mag_coef[0], sizeof(mag_coef), 10);
  31:Core/Src/MPU9250.c ****     CNTL1[1] = 0x16;
  32:Core/Src/MPU9250.c ****     HAL_I2C_Master_Transmit(&hi2c2, MAG_ADDR << 1, &CNTL1[0], sizeof(CNTL1), 10);*/
  33:Core/Src/MPU9250.c **** 
  34:Core/Src/MPU9250.c ****     dev->mag_coef_x = 0;
 260              		.loc 1 34 5 is_stmt 1 view .LVU32
ARM GAS  C:\Users\user-pc\AppData\Local\Temp\ccOyRBUZ.s 			page 6


 261              		.loc 1 34 21 is_stmt 0 view .LVU33
 262 0004 0023     		movs	r3, #0
 263 0006 0370     		strb	r3, [r0]
  35:Core/Src/MPU9250.c ****     dev->mag_coef_y = 0;
 264              		.loc 1 35 5 is_stmt 1 view .LVU34
 265              		.loc 1 35 21 is_stmt 0 view .LVU35
 266 0008 4370     		strb	r3, [r0, #1]
  36:Core/Src/MPU9250.c ****     dev->mag_coef_z = 0;
 267              		.loc 1 36 5 is_stmt 1 view .LVU36
 268              		.loc 1 36 21 is_stmt 0 view .LVU37
 269 000a 8370     		strb	r3, [r0, #2]
  37:Core/Src/MPU9250.c **** 
  38:Core/Src/MPU9250.c ****     dev->ang_vel_raw_x = 0;
 270              		.loc 1 38 5 is_stmt 1 view .LVU38
 271              		.loc 1 38 24 is_stmt 0 view .LVU39
 272 000c 8380     		strh	r3, [r0, #4]	@ movhi
  39:Core/Src/MPU9250.c ****     dev->ang_vel_raw_y = 0;
 273              		.loc 1 39 5 is_stmt 1 view .LVU40
 274              		.loc 1 39 24 is_stmt 0 view .LVU41
 275 000e C380     		strh	r3, [r0, #6]	@ movhi
  40:Core/Src/MPU9250.c ****     dev->ang_vel_raw_z = 0;
 276              		.loc 1 40 5 is_stmt 1 view .LVU42
 277              		.loc 1 40 24 is_stmt 0 view .LVU43
 278 0010 0381     		strh	r3, [r0, #8]	@ movhi
  41:Core/Src/MPU9250.c **** 
  42:Core/Src/MPU9250.c ****     dev->gyro_bias_x = 0.f;
 279              		.loc 1 42 5 is_stmt 1 view .LVU44
 280              		.loc 1 42 22 is_stmt 0 view .LVU45
 281 0012 0023     		movs	r3, #0
 282 0014 C360     		str	r3, [r0, #12]	@ float
  43:Core/Src/MPU9250.c ****     dev->gyro_bias_y = 0.f;
 283              		.loc 1 43 5 is_stmt 1 view .LVU46
 284              		.loc 1 43 22 is_stmt 0 view .LVU47
 285 0016 0361     		str	r3, [r0, #16]	@ float
  44:Core/Src/MPU9250.c ****     dev->gyro_bias_z = 0.f;
 286              		.loc 1 44 5 is_stmt 1 view .LVU48
 287              		.loc 1 44 22 is_stmt 0 view .LVU49
 288 0018 4361     		str	r3, [r0, #20]	@ float
  45:Core/Src/MPU9250.c **** 
  46:Core/Src/MPU9250.c ****     dev->ang_vel_dps_x = 0.f;
 289              		.loc 1 46 5 is_stmt 1 view .LVU50
 290              		.loc 1 46 24 is_stmt 0 view .LVU51
 291 001a 8361     		str	r3, [r0, #24]	@ float
  47:Core/Src/MPU9250.c ****     dev->ang_vel_dps_y = 0.f;
 292              		.loc 1 47 5 is_stmt 1 view .LVU52
 293              		.loc 1 47 24 is_stmt 0 view .LVU53
 294 001c C361     		str	r3, [r0, #28]	@ float
  48:Core/Src/MPU9250.c ****     dev->ang_vel_dps_z = 0.f;
 295              		.loc 1 48 5 is_stmt 1 view .LVU54
 296              		.loc 1 48 24 is_stmt 0 view .LVU55
 297 001e 0362     		str	r3, [r0, #32]	@ float
  49:Core/Src/MPU9250.c **** 
  50:Core/Src/MPU9250.c ****     dev->gyro_angle_deg_x = 0.f;
 298              		.loc 1 50 5 is_stmt 1 view .LVU56
 299              		.loc 1 50 27 is_stmt 0 view .LVU57
 300 0020 4362     		str	r3, [r0, #36]	@ float
  51:Core/Src/MPU9250.c ****     dev->gyro_angle_deg_y = 0.f;
ARM GAS  C:\Users\user-pc\AppData\Local\Temp\ccOyRBUZ.s 			page 7


 301              		.loc 1 51 5 is_stmt 1 view .LVU58
 302              		.loc 1 51 27 is_stmt 0 view .LVU59
 303 0022 8362     		str	r3, [r0, #40]	@ float
  52:Core/Src/MPU9250.c ****     dev->gyro_angle_deg_z = 0.f;
 304              		.loc 1 52 5 is_stmt 1 view .LVU60
 305              		.loc 1 52 27 is_stmt 0 view .LVU61
 306 0024 C362     		str	r3, [r0, #44]	@ float
  53:Core/Src/MPU9250.c **** 
  54:Core/Src/MPU9250.c ****     dev->accel_angle_deg_x = 0.f;
 307              		.loc 1 54 5 is_stmt 1 view .LVU62
 308              		.loc 1 54 28 is_stmt 0 view .LVU63
 309 0026 0363     		str	r3, [r0, #48]	@ float
  55:Core/Src/MPU9250.c ****     dev->accel_angle_deg_y = 0.f;
 310              		.loc 1 55 5 is_stmt 1 view .LVU64
 311              		.loc 1 55 28 is_stmt 0 view .LVU65
 312 0028 4363     		str	r3, [r0, #52]	@ float
  56:Core/Src/MPU9250.c ****     dev->mag_angle_deg_z = 0.f;
 313              		.loc 1 56 5 is_stmt 1 view .LVU66
 314              		.loc 1 56 26 is_stmt 0 view .LVU67
 315 002a 8363     		str	r3, [r0, #56]	@ float
  57:Core/Src/MPU9250.c **** 
  58:Core/Src/MPU9250.c ****     dev->roll = 0.f;
 316              		.loc 1 58 5 is_stmt 1 view .LVU68
 317              		.loc 1 58 15 is_stmt 0 view .LVU69
 318 002c C363     		str	r3, [r0, #60]	@ float
  59:Core/Src/MPU9250.c ****     dev->pitch = 0.f;
 319              		.loc 1 59 5 is_stmt 1 view .LVU70
 320              		.loc 1 59 16 is_stmt 0 view .LVU71
 321 002e 0364     		str	r3, [r0, #64]	@ float
  60:Core/Src/MPU9250.c ****     dev->yaw = 0.f;
 322              		.loc 1 60 5 is_stmt 1 view .LVU72
 323              		.loc 1 60 14 is_stmt 0 view .LVU73
 324 0030 4364     		str	r3, [r0, #68]	@ float
  61:Core/Src/MPU9250.c **** 
  62:Core/Src/MPU9250.c ****     uint8_t data;
 325              		.loc 1 62 5 is_stmt 1 view .LVU74
  63:Core/Src/MPU9250.c **** 
  64:Core/Src/MPU9250.c ****     data = 0x03;
 326              		.loc 1 64 5 view .LVU75
 327              		.loc 1 64 10 is_stmt 0 view .LVU76
 328 0032 0323     		movs	r3, #3
 329 0034 8DF80730 		strb	r3, [sp, #7]
  65:Core/Src/MPU9250.c ****     MPU9250_Write_Register(MPU9250_IMU_ADDR, MPU9250_IMU_REG_CONFIG, &data);
 330              		.loc 1 65 5 is_stmt 1 view .LVU77
 331 0038 0DF10702 		add	r2, sp, #7
 332 003c 1A21     		movs	r1, #26
 333 003e D220     		movs	r0, #210
 334              	.LVL23:
 335              		.loc 1 65 5 is_stmt 0 view .LVU78
 336 0040 FFF7FEFF 		bl	MPU9250_Write_Register
 337              	.LVL24:
  66:Core/Src/MPU9250.c **** 
  67:Core/Src/MPU9250.c ****     data = 0x08;
 338              		.loc 1 67 5 is_stmt 1 view .LVU79
 339              		.loc 1 67 10 is_stmt 0 view .LVU80
 340 0044 0823     		movs	r3, #8
 341 0046 8DF80730 		strb	r3, [sp, #7]
ARM GAS  C:\Users\user-pc\AppData\Local\Temp\ccOyRBUZ.s 			page 8


  68:Core/Src/MPU9250.c ****     MPU9250_Write_Register(MPU9250_IMU_ADDR, MPU9250_IMU_REG_GYRO_CONFIG, &data);
 342              		.loc 1 68 5 is_stmt 1 view .LVU81
 343 004a 0DF10702 		add	r2, sp, #7
 344 004e 1B21     		movs	r1, #27
 345 0050 D220     		movs	r0, #210
 346 0052 FFF7FEFF 		bl	MPU9250_Write_Register
 347              	.LVL25:
  69:Core/Src/MPU9250.c **** 
  70:Core/Src/MPU9250.c ****     data = 0x10;
 348              		.loc 1 70 5 view .LVU82
 349              		.loc 1 70 10 is_stmt 0 view .LVU83
 350 0056 1023     		movs	r3, #16
 351 0058 8DF80730 		strb	r3, [sp, #7]
  71:Core/Src/MPU9250.c ****     MPU9250_Write_Register(MPU9250_IMU_ADDR, MPU9250_IMU_REG_ACCEL_CONFIG, &data);
 352              		.loc 1 71 5 is_stmt 1 view .LVU84
 353 005c 0DF10702 		add	r2, sp, #7
 354 0060 1C21     		movs	r1, #28
 355 0062 D220     		movs	r0, #210
 356 0064 FFF7FEFF 		bl	MPU9250_Write_Register
 357              	.LVL26:
  72:Core/Src/MPU9250.c **** 
  73:Core/Src/MPU9250.c ****     data = 0x05;
 358              		.loc 1 73 5 view .LVU85
 359              		.loc 1 73 10 is_stmt 0 view .LVU86
 360 0068 0523     		movs	r3, #5
 361 006a 8DF80730 		strb	r3, [sp, #7]
  74:Core/Src/MPU9250.c ****     MPU9250_Write_Register(MPU9250_IMU_ADDR, MPU9250_IMU_REG_ACCEL_CONFIG_2, &data);
 362              		.loc 1 74 5 is_stmt 1 view .LVU87
 363 006e 0DF10702 		add	r2, sp, #7
 364 0072 1D21     		movs	r1, #29
 365 0074 D220     		movs	r0, #210
 366 0076 FFF7FEFF 		bl	MPU9250_Write_Register
 367              	.LVL27:
  75:Core/Src/MPU9250.c **** 
  76:Core/Src/MPU9250.c ****     data = 0x02;
 368              		.loc 1 76 5 view .LVU88
 369              		.loc 1 76 10 is_stmt 0 view .LVU89
 370 007a 0223     		movs	r3, #2
 371 007c 8DF80730 		strb	r3, [sp, #7]
  77:Core/Src/MPU9250.c ****     MPU9250_Write_Register(MPU9250_IMU_ADDR, MPU9250_IMU_REG_INT_PIN_CFG, &data);
 372              		.loc 1 77 5 is_stmt 1 view .LVU90
 373 0080 0DF10702 		add	r2, sp, #7
 374 0084 3721     		movs	r1, #55
 375 0086 D220     		movs	r0, #210
 376 0088 FFF7FEFF 		bl	MPU9250_Write_Register
 377              	.LVL28:
  78:Core/Src/MPU9250.c **** }
 378              		.loc 1 78 1 is_stmt 0 view .LVU91
 379 008c 03B0     		add	sp, sp, #12
 380              	.LCFI14:
 381              		.cfi_def_cfa_offset 4
 382              		@ sp needed
 383 008e 5DF804FB 		ldr	pc, [sp], #4
 384              		.cfi_endproc
 385              	.LFE239:
 387              		.section	.text.MPU9250_Read_Gyroscope,"ax",%progbits
 388              		.align	1
ARM GAS  C:\Users\user-pc\AppData\Local\Temp\ccOyRBUZ.s 			page 9


 389              		.global	MPU9250_Read_Gyroscope
 390              		.syntax unified
 391              		.thumb
 392              		.thumb_func
 393              		.fpu fpv4-sp-d16
 395              	MPU9250_Read_Gyroscope:
 396              	.LVL29:
 397              	.LFB241:
  79:Core/Src/MPU9250.c **** 
  80:Core/Src/MPU9250.c **** void MPU9250_Calibrate(MPU9250 *dev)
  81:Core/Src/MPU9250.c **** {
  82:Core/Src/MPU9250.c ****     float avg_gyro_bias_x = 0, avg_gyro_bias_y = 0, avg_gyro_bias_z = 0;
  83:Core/Src/MPU9250.c **** 
  84:Core/Src/MPU9250.c ****     for (int i = 0; i < 2000; i++)
  85:Core/Src/MPU9250.c ****     {
  86:Core/Src/MPU9250.c ****         MPU9250_Read_Gyroscope(dev);
  87:Core/Src/MPU9250.c **** 
  88:Core/Src/MPU9250.c ****         avg_gyro_bias_x += dev->ang_vel_raw_x;
  89:Core/Src/MPU9250.c ****         avg_gyro_bias_y += dev->ang_vel_raw_y;
  90:Core/Src/MPU9250.c ****         avg_gyro_bias_z += dev->ang_vel_raw_z;
  91:Core/Src/MPU9250.c **** 
  92:Core/Src/MPU9250.c ****         MPU9250_Read_Accelerometer(dev);
  93:Core/Src/MPU9250.c **** 
  94:Core/Src/MPU9250.c ****         HAL_Delay(10);
  95:Core/Src/MPU9250.c ****     }
  96:Core/Src/MPU9250.c **** 
  97:Core/Src/MPU9250.c ****     dev->gyro_bias_x = avg_gyro_bias_x / 2000;
  98:Core/Src/MPU9250.c ****     dev->gyro_bias_y = avg_gyro_bias_y / 2000;
  99:Core/Src/MPU9250.c ****     dev->gyro_bias_z = avg_gyro_bias_z / 2000;
 100:Core/Src/MPU9250.c **** 
 101:Core/Src/MPU9250.c ****     dev->roll = dev->accel_angle_deg_x;
 102:Core/Src/MPU9250.c ****     dev->pitch = dev->accel_angle_deg_y;
 103:Core/Src/MPU9250.c **** }
 104:Core/Src/MPU9250.c **** 
 105:Core/Src/MPU9250.c **** void MPU9250_Read_Gyroscope(MPU9250 *dev)
 106:Core/Src/MPU9250.c **** {
 398              		.loc 1 106 1 is_stmt 1 view -0
 399              		.cfi_startproc
 400              		@ args = 0, pretend = 0, frame = 8
 401              		@ frame_needed = 0, uses_anonymous_args = 0
 402              		.loc 1 106 1 is_stmt 0 view .LVU93
 403 0000 10B5     		push	{r4, lr}
 404              	.LCFI15:
 405              		.cfi_def_cfa_offset 8
 406              		.cfi_offset 4, -8
 407              		.cfi_offset 14, -4
 408 0002 82B0     		sub	sp, sp, #8
 409              	.LCFI16:
 410              		.cfi_def_cfa_offset 16
 411 0004 0446     		mov	r4, r0
 107:Core/Src/MPU9250.c ****     uint8_t data[6];
 412              		.loc 1 107 5 is_stmt 1 view .LVU94
 108:Core/Src/MPU9250.c ****     static const float Ts = 0.01f;
 413              		.loc 1 108 5 view .LVU95
 109:Core/Src/MPU9250.c **** 
 110:Core/Src/MPU9250.c ****     MPU9250_Read_Registers(MPU9250_IMU_ADDR, MPU9250_IMU_REG_GYRO_XOUT_H, data, sizeof(data));
 414              		.loc 1 110 5 view .LVU96
ARM GAS  C:\Users\user-pc\AppData\Local\Temp\ccOyRBUZ.s 			page 10


 415 0006 0623     		movs	r3, #6
 416 0008 6A46     		mov	r2, sp
 417 000a 4321     		movs	r1, #67
 418 000c D220     		movs	r0, #210
 419              	.LVL30:
 420              		.loc 1 110 5 is_stmt 0 view .LVU97
 421 000e FFF7FEFF 		bl	MPU9250_Read_Registers
 422              	.LVL31:
 111:Core/Src/MPU9250.c **** 
 112:Core/Src/MPU9250.c ****     dev->ang_vel_raw_x = ((int16_t)data[0] << 8) | data[1];
 423              		.loc 1 112 5 is_stmt 1 view .LVU98
 424              		.loc 1 112 40 is_stmt 0 view .LVU99
 425 0012 9DF80030 		ldrb	r3, [sp]	@ zero_extendqisi2
 426              		.loc 1 112 56 view .LVU100
 427 0016 9DF80110 		ldrb	r1, [sp, #1]	@ zero_extendqisi2
 428              		.loc 1 112 50 view .LVU101
 429 001a 41EA0321 		orr	r1, r1, r3, lsl #8
 430 001e 09B2     		sxth	r1, r1
 431              		.loc 1 112 24 view .LVU102
 432 0020 A180     		strh	r1, [r4, #4]	@ movhi
 113:Core/Src/MPU9250.c ****     dev->ang_vel_raw_y = ((int16_t)data[2] << 8) | data[3];
 433              		.loc 1 113 5 is_stmt 1 view .LVU103
 434              		.loc 1 113 40 is_stmt 0 view .LVU104
 435 0022 9DF80230 		ldrb	r3, [sp, #2]	@ zero_extendqisi2
 436              		.loc 1 113 56 view .LVU105
 437 0026 9DF80320 		ldrb	r2, [sp, #3]	@ zero_extendqisi2
 438              		.loc 1 113 50 view .LVU106
 439 002a 42EA0322 		orr	r2, r2, r3, lsl #8
 440 002e 12B2     		sxth	r2, r2
 441              		.loc 1 113 24 view .LVU107
 442 0030 E280     		strh	r2, [r4, #6]	@ movhi
 114:Core/Src/MPU9250.c ****     dev->ang_vel_raw_z = ((int16_t)data[4] << 8) | data[5];
 443              		.loc 1 114 5 is_stmt 1 view .LVU108
 444              		.loc 1 114 40 is_stmt 0 view .LVU109
 445 0032 9DF80400 		ldrb	r0, [sp, #4]	@ zero_extendqisi2
 446              		.loc 1 114 56 view .LVU110
 447 0036 9DF80530 		ldrb	r3, [sp, #5]	@ zero_extendqisi2
 448              		.loc 1 114 50 view .LVU111
 449 003a 43EA0023 		orr	r3, r3, r0, lsl #8
 450 003e 1BB2     		sxth	r3, r3
 451              		.loc 1 114 24 view .LVU112
 452 0040 2381     		strh	r3, [r4, #8]	@ movhi
 115:Core/Src/MPU9250.c **** 
 116:Core/Src/MPU9250.c ****     dev->ang_vel_raw_x -= dev->gyro_bias_x;
 453              		.loc 1 116 5 is_stmt 1 view .LVU113
 454              		.loc 1 116 30 is_stmt 0 view .LVU114
 455 0042 94ED037A 		vldr.32	s14, [r4, #12]
 456              		.loc 1 116 24 view .LVU115
 457 0046 07EE901A 		vmov	s15, r1	@ int
 458 004a F8EEE77A 		vcvt.f32.s32	s15, s15
 459 004e 77EEC77A 		vsub.f32	s15, s15, s14
 460 0052 FDEEE77A 		vcvt.s32.f32	s15, s15
 461 0056 17EE901A 		vmov	r1, s15	@ int
 462 005a 09B2     		sxth	r1, r1
 463 005c A180     		strh	r1, [r4, #4]	@ movhi
 117:Core/Src/MPU9250.c ****     dev->ang_vel_raw_y -= dev->gyro_bias_y;
 464              		.loc 1 117 5 is_stmt 1 view .LVU116
ARM GAS  C:\Users\user-pc\AppData\Local\Temp\ccOyRBUZ.s 			page 11


 465              		.loc 1 117 30 is_stmt 0 view .LVU117
 466 005e 94ED047A 		vldr.32	s14, [r4, #16]
 467              		.loc 1 117 24 view .LVU118
 468 0062 07EE902A 		vmov	s15, r2	@ int
 469 0066 F8EEE77A 		vcvt.f32.s32	s15, s15
 470 006a 77EEC77A 		vsub.f32	s15, s15, s14
 471 006e FDEEE77A 		vcvt.s32.f32	s15, s15
 472 0072 17EE902A 		vmov	r2, s15	@ int
 473 0076 12B2     		sxth	r2, r2
 474 0078 E280     		strh	r2, [r4, #6]	@ movhi
 118:Core/Src/MPU9250.c ****     dev->ang_vel_raw_z -= dev->gyro_bias_z;
 475              		.loc 1 118 5 is_stmt 1 view .LVU119
 476              		.loc 1 118 30 is_stmt 0 view .LVU120
 477 007a 94ED057A 		vldr.32	s14, [r4, #20]
 478              		.loc 1 118 24 view .LVU121
 479 007e 07EE903A 		vmov	s15, r3	@ int
 480 0082 F8EEE77A 		vcvt.f32.s32	s15, s15
 481 0086 77EEC77A 		vsub.f32	s15, s15, s14
 482 008a FDEEE77A 		vcvt.s32.f32	s15, s15
 483 008e 17EE903A 		vmov	r3, s15	@ int
 484 0092 1BB2     		sxth	r3, r3
 485 0094 2381     		strh	r3, [r4, #8]	@ movhi
 119:Core/Src/MPU9250.c **** 
 120:Core/Src/MPU9250.c ****     dev->ang_vel_dps_x = (float)dev->ang_vel_raw_x / 65.5f;
 486              		.loc 1 120 5 is_stmt 1 view .LVU122
 487              		.loc 1 120 26 is_stmt 0 view .LVU123
 488 0096 07EE901A 		vmov	s15, r1	@ int
 489 009a F8EEE77A 		vcvt.f32.s32	s15, s15
 490              		.loc 1 120 52 view .LVU124
 491 009e DFED195A 		vldr.32	s11, .L21
 492 00a2 87EEA56A 		vdiv.f32	s12, s15, s11
 493              		.loc 1 120 24 view .LVU125
 494 00a6 84ED066A 		vstr.32	s12, [r4, #24]
 121:Core/Src/MPU9250.c ****     dev->ang_vel_dps_y = (float)dev->ang_vel_raw_y / 65.5f;
 495              		.loc 1 121 5 is_stmt 1 view .LVU126
 496              		.loc 1 121 26 is_stmt 0 view .LVU127
 497 00aa 07EE902A 		vmov	s15, r2	@ int
 498 00ae F8EEE77A 		vcvt.f32.s32	s15, s15
 499              		.loc 1 121 52 view .LVU128
 500 00b2 C7EEA56A 		vdiv.f32	s13, s15, s11
 501              		.loc 1 121 24 view .LVU129
 502 00b6 C4ED076A 		vstr.32	s13, [r4, #28]
 122:Core/Src/MPU9250.c ****     dev->ang_vel_dps_z = (float)dev->ang_vel_raw_z / 65.5f;
 503              		.loc 1 122 5 is_stmt 1 view .LVU130
 504              		.loc 1 122 26 is_stmt 0 view .LVU131
 505 00ba 07EE903A 		vmov	s15, r3	@ int
 506 00be F8EEE77A 		vcvt.f32.s32	s15, s15
 507              		.loc 1 122 52 view .LVU132
 508 00c2 87EEA57A 		vdiv.f32	s14, s15, s11
 509              		.loc 1 122 24 view .LVU133
 510 00c6 84ED087A 		vstr.32	s14, [r4, #32]
 123:Core/Src/MPU9250.c **** 
 124:Core/Src/MPU9250.c ****     dev->gyro_angle_deg_x = dev->ang_vel_dps_x * Ts + dev->roll;
 511              		.loc 1 124 5 is_stmt 1 view .LVU134
 512              		.loc 1 124 48 is_stmt 0 view .LVU135
 513 00ca DFED0F7A 		vldr.32	s15, .L21+4
 514 00ce 26EE276A 		vmul.f32	s12, s12, s15
ARM GAS  C:\Users\user-pc\AppData\Local\Temp\ccOyRBUZ.s 			page 12


 515              		.loc 1 124 58 view .LVU136
 516 00d2 D4ED0F5A 		vldr.32	s11, [r4, #60]
 517              		.loc 1 124 53 view .LVU137
 518 00d6 36EE256A 		vadd.f32	s12, s12, s11
 519              		.loc 1 124 27 view .LVU138
 520 00da 84ED096A 		vstr.32	s12, [r4, #36]
 125:Core/Src/MPU9250.c ****     dev->gyro_angle_deg_y = dev->ang_vel_dps_y * Ts + dev->pitch;
 521              		.loc 1 125 5 is_stmt 1 view .LVU139
 522              		.loc 1 125 48 is_stmt 0 view .LVU140
 523 00de 66EEA76A 		vmul.f32	s13, s13, s15
 524              		.loc 1 125 58 view .LVU141
 525 00e2 94ED106A 		vldr.32	s12, [r4, #64]
 526              		.loc 1 125 53 view .LVU142
 527 00e6 76EE866A 		vadd.f32	s13, s13, s12
 528              		.loc 1 125 27 view .LVU143
 529 00ea C4ED0A6A 		vstr.32	s13, [r4, #40]
 126:Core/Src/MPU9250.c ****     dev->gyro_angle_deg_z = dev->ang_vel_dps_z * Ts + dev->yaw;
 530              		.loc 1 126 5 is_stmt 1 view .LVU144
 531              		.loc 1 126 48 is_stmt 0 view .LVU145
 532 00ee 27EE277A 		vmul.f32	s14, s14, s15
 533              		.loc 1 126 58 view .LVU146
 534 00f2 D4ED117A 		vldr.32	s15, [r4, #68]
 535              		.loc 1 126 53 view .LVU147
 536 00f6 37EE277A 		vadd.f32	s14, s14, s15
 537              		.loc 1 126 27 view .LVU148
 538 00fa 84ED0B7A 		vstr.32	s14, [r4, #44]
 127:Core/Src/MPU9250.c **** }
 539              		.loc 1 127 1 view .LVU149
 540 00fe 02B0     		add	sp, sp, #8
 541              	.LCFI17:
 542              		.cfi_def_cfa_offset 8
 543              		@ sp needed
 544 0100 10BD     		pop	{r4, pc}
 545              	.LVL32:
 546              	.L22:
 547              		.loc 1 127 1 view .LVU150
 548 0102 00BF     		.align	2
 549              	.L21:
 550 0104 00008342 		.word	1115881472
 551 0108 0AD7233C 		.word	1008981770
 552              		.cfi_endproc
 553              	.LFE241:
 555              		.section	.text.MPU9250_Read_Accelerometer,"ax",%progbits
 556              		.align	1
 557              		.global	MPU9250_Read_Accelerometer
 558              		.syntax unified
 559              		.thumb
 560              		.thumb_func
 561              		.fpu fpv4-sp-d16
 563              	MPU9250_Read_Accelerometer:
 564              	.LVL33:
 565              	.LFB242:
 128:Core/Src/MPU9250.c **** 
 129:Core/Src/MPU9250.c **** void MPU9250_Read_Accelerometer(MPU9250 *dev)
 130:Core/Src/MPU9250.c **** {
 566              		.loc 1 130 1 is_stmt 1 view -0
 567              		.cfi_startproc
ARM GAS  C:\Users\user-pc\AppData\Local\Temp\ccOyRBUZ.s 			page 13


 568              		@ args = 0, pretend = 0, frame = 8
 569              		@ frame_needed = 0, uses_anonymous_args = 0
 570              		.loc 1 130 1 is_stmt 0 view .LVU152
 571 0000 10B5     		push	{r4, lr}
 572              	.LCFI18:
 573              		.cfi_def_cfa_offset 8
 574              		.cfi_offset 4, -8
 575              		.cfi_offset 14, -4
 576 0002 2DED068B 		vpush.64	{d8, d9, d10}
 577              	.LCFI19:
 578              		.cfi_def_cfa_offset 32
 579              		.cfi_offset 80, -32
 580              		.cfi_offset 81, -28
 581              		.cfi_offset 82, -24
 582              		.cfi_offset 83, -20
 583              		.cfi_offset 84, -16
 584              		.cfi_offset 85, -12
 585 0006 82B0     		sub	sp, sp, #8
 586              	.LCFI20:
 587              		.cfi_def_cfa_offset 40
 588 0008 0446     		mov	r4, r0
 131:Core/Src/MPU9250.c ****     uint8_t data[6];
 589              		.loc 1 131 5 is_stmt 1 view .LVU153
 132:Core/Src/MPU9250.c ****     int16_t lin_accel_raw_x = 0, lin_accel_raw_y = 0, lin_accel_raw_z = 0;
 590              		.loc 1 132 5 view .LVU154
 591              	.LVL34:
 133:Core/Src/MPU9250.c ****     static const float accel_bias_x = -1330.8905f, accel_bias_y = -4137.8415f, accel_bias_z = 3963.
 592              		.loc 1 133 5 view .LVU155
 134:Core/Src/MPU9250.c ****     float lin_accel_mps2_x = 0.f, lin_accel_mps2_y = 0.f, lin_accel_mps2_z = 0.f;
 593              		.loc 1 134 5 view .LVU156
 135:Core/Src/MPU9250.c **** 
 136:Core/Src/MPU9250.c ****     MPU9250_Read_Registers(MPU9250_IMU_ADDR, MPU9250_IMU_REG_ACCEL_XOUT_H, data, sizeof(data));
 594              		.loc 1 136 5 view .LVU157
 595 000a 0623     		movs	r3, #6
 596 000c 6A46     		mov	r2, sp
 597 000e 3B21     		movs	r1, #59
 598 0010 D220     		movs	r0, #210
 599              	.LVL35:
 600              		.loc 1 136 5 is_stmt 0 view .LVU158
 601 0012 FFF7FEFF 		bl	MPU9250_Read_Registers
 602              	.LVL36:
 137:Core/Src/MPU9250.c **** 
 138:Core/Src/MPU9250.c ****     lin_accel_raw_x = ((int16_t)data[0] << 8) | data[1];
 603              		.loc 1 138 5 is_stmt 1 view .LVU159
 604              		.loc 1 138 37 is_stmt 0 view .LVU160
 605 0016 9DF80030 		ldrb	r3, [sp]	@ zero_extendqisi2
 606              		.loc 1 138 41 view .LVU161
 607 001a 1B02     		lsls	r3, r3, #8
 608              		.loc 1 138 47 view .LVU162
 609 001c 1BB2     		sxth	r3, r3
 610              		.loc 1 138 53 view .LVU163
 611 001e 9DF80120 		ldrb	r2, [sp, #1]	@ zero_extendqisi2
 612              		.loc 1 138 21 view .LVU164
 613 0022 1343     		orrs	r3, r3, r2
 614 0024 09EE103A 		vmov	s18, r3	@ int
 615              	.LVL37:
 139:Core/Src/MPU9250.c ****     lin_accel_raw_y = ((int16_t)data[2] << 8) | data[3];
ARM GAS  C:\Users\user-pc\AppData\Local\Temp\ccOyRBUZ.s 			page 14


 616              		.loc 1 139 5 is_stmt 1 view .LVU165
 617              		.loc 1 139 37 is_stmt 0 view .LVU166
 618 0028 9DF80230 		ldrb	r3, [sp, #2]	@ zero_extendqisi2
 619              		.loc 1 139 41 view .LVU167
 620 002c 1B02     		lsls	r3, r3, #8
 621              		.loc 1 139 47 view .LVU168
 622 002e 1BB2     		sxth	r3, r3
 623              		.loc 1 139 53 view .LVU169
 624 0030 9DF80320 		ldrb	r2, [sp, #3]	@ zero_extendqisi2
 625              		.loc 1 139 21 view .LVU170
 626 0034 1343     		orrs	r3, r3, r2
 627 0036 08EE103A 		vmov	s16, r3	@ int
 628              	.LVL38:
 140:Core/Src/MPU9250.c ****     lin_accel_raw_z = ((int16_t)data[4] << 8) | data[5];
 629              		.loc 1 140 5 is_stmt 1 view .LVU171
 630              		.loc 1 140 37 is_stmt 0 view .LVU172
 631 003a 9DF80430 		ldrb	r3, [sp, #4]	@ zero_extendqisi2
 632              		.loc 1 140 41 view .LVU173
 633 003e 1B02     		lsls	r3, r3, #8
 634              		.loc 1 140 47 view .LVU174
 635 0040 1BB2     		sxth	r3, r3
 636              		.loc 1 140 53 view .LVU175
 637 0042 9DF80520 		ldrb	r2, [sp, #5]	@ zero_extendqisi2
 638              		.loc 1 140 21 view .LVU176
 639 0046 1343     		orrs	r3, r3, r2
 640 0048 08EE903A 		vmov	s17, r3	@ int
 641              	.LVL39:
 141:Core/Src/MPU9250.c **** 
 142:Core/Src/MPU9250.c ****     lin_accel_raw_x -= accel_bias_x;
 642              		.loc 1 142 5 is_stmt 1 view .LVU177
 643              		.loc 1 142 21 is_stmt 0 view .LVU178
 644 004c B8EEC99A 		vcvt.f32.s32	s18, s18
 645              	.LVL40:
 646              		.loc 1 142 21 view .LVU179
 647 0050 DFED467A 		vldr.32	s15, .L25
 648 0054 39EE279A 		vadd.f32	s18, s18, s15
 649 0058 BDEEC99A 		vcvt.s32.f32	s18, s18
 650 005c 19EE103A 		vmov	r3, s18	@ int
 651 0060 1BB2     		sxth	r3, r3
 652 0062 09EE103A 		vmov	s18, r3	@ int
 653              	.LVL41:
 143:Core/Src/MPU9250.c ****     lin_accel_raw_y -= accel_bias_y;
 654              		.loc 1 143 5 is_stmt 1 view .LVU180
 655              		.loc 1 143 21 is_stmt 0 view .LVU181
 656 0066 B8EEC88A 		vcvt.f32.s32	s16, s16
 657              	.LVL42:
 658              		.loc 1 143 21 view .LVU182
 659 006a DFED417A 		vldr.32	s15, .L25+4
 660 006e 38EE278A 		vadd.f32	s16, s16, s15
 661 0072 BDEEC88A 		vcvt.s32.f32	s16, s16
 662 0076 18EE103A 		vmov	r3, s16	@ int
 663 007a 1BB2     		sxth	r3, r3
 664 007c 08EE103A 		vmov	s16, r3	@ int
 665              	.LVL43:
 144:Core/Src/MPU9250.c ****     lin_accel_raw_z -= accel_bias_z;
 666              		.loc 1 144 5 is_stmt 1 view .LVU183
 667              		.loc 1 144 21 is_stmt 0 view .LVU184
ARM GAS  C:\Users\user-pc\AppData\Local\Temp\ccOyRBUZ.s 			page 15


 668 0080 F8EEE88A 		vcvt.f32.s32	s17, s17
 669              	.LVL44:
 670              		.loc 1 144 21 view .LVU185
 671 0084 DFED3B7A 		vldr.32	s15, .L25+8
 672 0088 78EEE78A 		vsub.f32	s17, s17, s15
 673 008c FDEEE88A 		vcvt.s32.f32	s17, s17
 674 0090 18EE903A 		vmov	r3, s17	@ int
 675 0094 1BB2     		sxth	r3, r3
 676 0096 08EE903A 		vmov	s17, r3	@ int
 677              	.LVL45:
 145:Core/Src/MPU9250.c **** 
 146:Core/Src/MPU9250.c ****     lin_accel_mps2_x = (float)lin_accel_raw_x / 4096.f * 9.80665f;
 678              		.loc 1 146 5 is_stmt 1 view .LVU186
 679              		.loc 1 146 24 is_stmt 0 view .LVU187
 680 009a B8EEC99A 		vcvt.f32.s32	s18, s18
 681              	.LVL46:
 682              		.loc 1 146 47 view .LVU188
 683 009e 9FED367A 		vldr.32	s14, .L25+12
 684 00a2 29EE079A 		vmul.f32	s18, s18, s14
 685              		.loc 1 146 22 view .LVU189
 686 00a6 DFED357A 		vldr.32	s15, .L25+16
 687 00aa 29EE279A 		vmul.f32	s18, s18, s15
 688              	.LVL47:
 147:Core/Src/MPU9250.c ****     lin_accel_mps2_y = (float)lin_accel_raw_y / 4096.f * 9.80665f;
 689              		.loc 1 147 5 is_stmt 1 view .LVU190
 690              		.loc 1 147 24 is_stmt 0 view .LVU191
 691 00ae B8EEC88A 		vcvt.f32.s32	s16, s16
 692              	.LVL48:
 693              		.loc 1 147 47 view .LVU192
 694 00b2 28EE078A 		vmul.f32	s16, s16, s14
 695              		.loc 1 147 22 view .LVU193
 696 00b6 28EE278A 		vmul.f32	s16, s16, s15
 697              	.LVL49:
 148:Core/Src/MPU9250.c ****     lin_accel_mps2_z = (float)lin_accel_raw_z / 4096.f * 9.80665f;
 698              		.loc 1 148 5 is_stmt 1 view .LVU194
 699              		.loc 1 148 24 is_stmt 0 view .LVU195
 700 00ba F8EEE88A 		vcvt.f32.s32	s17, s17
 701              	.LVL50:
 702              		.loc 1 148 47 view .LVU196
 703 00be 68EE878A 		vmul.f32	s17, s17, s14
 704              		.loc 1 148 22 view .LVU197
 705 00c2 68EEA78A 		vmul.f32	s17, s17, s15
 706              	.LVL51:
 149:Core/Src/MPU9250.c **** 
 150:Core/Src/MPU9250.c ****     // accel_angle_deg[0] = atan2f(lin_accel_ms2[1], sqrtf(powf(lin_accel_ms2[0], 2) + powf(lin_acc
 151:Core/Src/MPU9250.c ****     dev->accel_angle_deg_x = asinf(lin_accel_mps2_y / sqrtf(powf(lin_accel_mps2_x, 2) + powf(lin_ac
 707              		.loc 1 151 5 is_stmt 1 view .LVU198
 708              		.loc 1 151 61 is_stmt 0 view .LVU199
 709 00c6 F0EE000A 		vmov.f32	s1, #2.0e+0
 710 00ca B0EE490A 		vmov.f32	s0, s18
 711 00ce FFF7FEFF 		bl	powf
 712              	.LVL52:
 713              		.loc 1 151 61 view .LVU200
 714 00d2 F0EE409A 		vmov.f32	s19, s0
 715              		.loc 1 151 89 view .LVU201
 716 00d6 F0EE000A 		vmov.f32	s1, #2.0e+0
 717 00da B0EE480A 		vmov.f32	s0, s16
ARM GAS  C:\Users\user-pc\AppData\Local\Temp\ccOyRBUZ.s 			page 16


 718 00de FFF7FEFF 		bl	powf
 719              	.LVL53:
 720              		.loc 1 151 87 view .LVU202
 721 00e2 79EE809A 		vadd.f32	s19, s19, s0
 722              		.loc 1 151 117 view .LVU203
 723 00e6 F0EE000A 		vmov.f32	s1, #2.0e+0
 724 00ea B0EE680A 		vmov.f32	s0, s17
 725 00ee FFF7FEFF 		bl	powf
 726              	.LVL54:
 727              		.loc 1 151 55 view .LVU204
 728 00f2 39EE800A 		vadd.f32	s0, s19, s0
 729 00f6 FFF7FEFF 		bl	sqrtf
 730              	.LVL55:
 731              		.loc 1 151 30 view .LVU205
 732 00fa 88EE000A 		vdiv.f32	s0, s16, s0
 733 00fe FFF7FEFF 		bl	asinf
 734              	.LVL56:
 735              		.loc 1 151 145 view .LVU206
 736 0102 9FED1FAA 		vldr.32	s20, .L25+20
 737 0106 20EE0A0A 		vmul.f32	s0, s0, s20
 738              		.loc 1 151 153 view .LVU207
 739 010a DFED1E9A 		vldr.32	s19, .L25+24
 740 010e C0EE297A 		vdiv.f32	s15, s0, s19
 741              		.loc 1 151 28 view .LVU208
 742 0112 C4ED0C7A 		vstr.32	s15, [r4, #48]
 152:Core/Src/MPU9250.c ****     // accel_angle_deg[1] = atan2f(-lin_accel_ms2[0], sqrtf(powf(lin_accel_ms2[1], 2) + powf(lin_ac
 153:Core/Src/MPU9250.c ****     dev->accel_angle_deg_y = asinf(-lin_accel_mps2_x / sqrtf(powf(lin_accel_mps2_x, 2) + powf(lin_a
 743              		.loc 1 153 5 is_stmt 1 view .LVU209
 744              		.loc 1 153 36 is_stmt 0 view .LVU210
 745 0116 F1EE49AA 		vneg.f32	s21, s18
 746              		.loc 1 153 62 view .LVU211
 747 011a F0EE000A 		vmov.f32	s1, #2.0e+0
 748 011e B0EE490A 		vmov.f32	s0, s18
 749 0122 FFF7FEFF 		bl	powf
 750              	.LVL57:
 751 0126 B0EE409A 		vmov.f32	s18, s0
 752              	.LVL58:
 753              		.loc 1 153 90 view .LVU212
 754 012a F0EE000A 		vmov.f32	s1, #2.0e+0
 755 012e B0EE480A 		vmov.f32	s0, s16
 756 0132 FFF7FEFF 		bl	powf
 757              	.LVL59:
 758              		.loc 1 153 88 view .LVU213
 759 0136 39EE009A 		vadd.f32	s18, s18, s0
 760              		.loc 1 153 118 view .LVU214
 761 013a F0EE000A 		vmov.f32	s1, #2.0e+0
 762 013e B0EE680A 		vmov.f32	s0, s17
 763 0142 FFF7FEFF 		bl	powf
 764              	.LVL60:
 765              		.loc 1 153 56 view .LVU215
 766 0146 39EE000A 		vadd.f32	s0, s18, s0
 767 014a FFF7FEFF 		bl	sqrtf
 768              	.LVL61:
 769              		.loc 1 153 30 view .LVU216
 770 014e 8AEE800A 		vdiv.f32	s0, s21, s0
 771 0152 FFF7FEFF 		bl	asinf
 772              	.LVL62:
ARM GAS  C:\Users\user-pc\AppData\Local\Temp\ccOyRBUZ.s 			page 17


 773              		.loc 1 153 146 view .LVU217
 774 0156 20EE0A0A 		vmul.f32	s0, s0, s20
 775              		.loc 1 153 154 view .LVU218
 776 015a C0EE297A 		vdiv.f32	s15, s0, s19
 777              		.loc 1 153 28 view .LVU219
 778 015e C4ED0D7A 		vstr.32	s15, [r4, #52]
 154:Core/Src/MPU9250.c **** }
 779              		.loc 1 154 1 view .LVU220
 780 0162 02B0     		add	sp, sp, #8
 781              	.LCFI21:
 782              		.cfi_def_cfa_offset 32
 783              		@ sp needed
 784 0164 BDEC068B 		vldm	sp!, {d8-d10}
 785              	.LCFI22:
 786              		.cfi_restore 84
 787              		.cfi_restore 85
 788              		.cfi_restore 82
 789              		.cfi_restore 83
 790              		.cfi_restore 80
 791              		.cfi_restore 81
 792              		.cfi_def_cfa_offset 8
 793              	.LVL63:
 794              		.loc 1 154 1 view .LVU221
 795 0168 10BD     		pop	{r4, pc}
 796              	.LVL64:
 797              	.L26:
 798              		.loc 1 154 1 view .LVU222
 799 016a 00BF     		.align	2
 800              	.L25:
 801 016c 7F5CA644 		.word	1151753343
 802 0170 BB4E8145 		.word	1166102203
 803 0174 F2DEFB45 		.word	1174134514
 804 0178 00008039 		.word	964689920
 805 017c 0AE81C41 		.word	1092413450
 806 0180 00003443 		.word	1127481344
 807 0184 D80F4940 		.word	1078530008
 808              		.cfi_endproc
 809              	.LFE242:
 811              		.section	.text.MPU9250_Calibrate,"ax",%progbits
 812              		.align	1
 813              		.global	MPU9250_Calibrate
 814              		.syntax unified
 815              		.thumb
 816              		.thumb_func
 817              		.fpu fpv4-sp-d16
 819              	MPU9250_Calibrate:
 820              	.LVL65:
 821              	.LFB240:
  81:Core/Src/MPU9250.c ****     float avg_gyro_bias_x = 0, avg_gyro_bias_y = 0, avg_gyro_bias_z = 0;
 822              		.loc 1 81 1 is_stmt 1 view -0
 823              		.cfi_startproc
 824              		@ args = 0, pretend = 0, frame = 0
 825              		@ frame_needed = 0, uses_anonymous_args = 0
  81:Core/Src/MPU9250.c ****     float avg_gyro_bias_x = 0, avg_gyro_bias_y = 0, avg_gyro_bias_z = 0;
 826              		.loc 1 81 1 is_stmt 0 view .LVU224
 827 0000 38B5     		push	{r3, r4, r5, lr}
 828              	.LCFI23:
ARM GAS  C:\Users\user-pc\AppData\Local\Temp\ccOyRBUZ.s 			page 18


 829              		.cfi_def_cfa_offset 16
 830              		.cfi_offset 3, -16
 831              		.cfi_offset 4, -12
 832              		.cfi_offset 5, -8
 833              		.cfi_offset 14, -4
 834 0002 2DED048B 		vpush.64	{d8, d9}
 835              	.LCFI24:
 836              		.cfi_def_cfa_offset 32
 837              		.cfi_offset 80, -32
 838              		.cfi_offset 81, -28
 839              		.cfi_offset 82, -24
 840              		.cfi_offset 83, -20
 841 0006 0446     		mov	r4, r0
  82:Core/Src/MPU9250.c **** 
 842              		.loc 1 82 5 is_stmt 1 view .LVU225
 843              	.LVL66:
  84:Core/Src/MPU9250.c ****     {
 844              		.loc 1 84 5 view .LVU226
 845              	.LBB2:
  84:Core/Src/MPU9250.c ****     {
 846              		.loc 1 84 10 view .LVU227
  84:Core/Src/MPU9250.c ****     {
 847              		.loc 1 84 14 is_stmt 0 view .LVU228
 848 0008 0025     		movs	r5, #0
 849              	.LBE2:
  82:Core/Src/MPU9250.c **** 
 850              		.loc 1 82 53 view .LVU229
 851 000a 9FED208A 		vldr.32	s16, .L31
  82:Core/Src/MPU9250.c **** 
 852              		.loc 1 82 32 view .LVU230
 853 000e F0EE488A 		vmov.f32	s17, s16
  82:Core/Src/MPU9250.c **** 
 854              		.loc 1 82 11 view .LVU231
 855 0012 B0EE489A 		vmov.f32	s18, s16
 856              	.LBB3:
  84:Core/Src/MPU9250.c ****     {
 857              		.loc 1 84 5 view .LVU232
 858 0016 21E0     		b	.L28
 859              	.LVL67:
 860              	.L29:
  86:Core/Src/MPU9250.c **** 
 861              		.loc 1 86 9 is_stmt 1 discriminator 3 view .LVU233
 862 0018 2046     		mov	r0, r4
 863 001a FFF7FEFF 		bl	MPU9250_Read_Gyroscope
 864              	.LVL68:
  88:Core/Src/MPU9250.c ****         avg_gyro_bias_y += dev->ang_vel_raw_y;
 865              		.loc 1 88 9 discriminator 3 view .LVU234
  88:Core/Src/MPU9250.c ****         avg_gyro_bias_y += dev->ang_vel_raw_y;
 866              		.loc 1 88 31 is_stmt 0 discriminator 3 view .LVU235
 867 001e B4F90430 		ldrsh	r3, [r4, #4]
 868 0022 07EE903A 		vmov	s15, r3	@ int
  88:Core/Src/MPU9250.c ****         avg_gyro_bias_y += dev->ang_vel_raw_y;
 869              		.loc 1 88 25 discriminator 3 view .LVU236
 870 0026 F8EEE77A 		vcvt.f32.s32	s15, s15
 871 002a 39EE279A 		vadd.f32	s18, s18, s15
 872              	.LVL69:
  89:Core/Src/MPU9250.c ****         avg_gyro_bias_z += dev->ang_vel_raw_z;
ARM GAS  C:\Users\user-pc\AppData\Local\Temp\ccOyRBUZ.s 			page 19


 873              		.loc 1 89 9 is_stmt 1 discriminator 3 view .LVU237
  89:Core/Src/MPU9250.c ****         avg_gyro_bias_z += dev->ang_vel_raw_z;
 874              		.loc 1 89 31 is_stmt 0 discriminator 3 view .LVU238
 875 002e B4F90630 		ldrsh	r3, [r4, #6]
 876 0032 07EE903A 		vmov	s15, r3	@ int
  89:Core/Src/MPU9250.c ****         avg_gyro_bias_z += dev->ang_vel_raw_z;
 877              		.loc 1 89 25 discriminator 3 view .LVU239
 878 0036 F8EEE77A 		vcvt.f32.s32	s15, s15
 879 003a 78EEA78A 		vadd.f32	s17, s17, s15
 880              	.LVL70:
  90:Core/Src/MPU9250.c **** 
 881              		.loc 1 90 9 is_stmt 1 discriminator 3 view .LVU240
  90:Core/Src/MPU9250.c **** 
 882              		.loc 1 90 31 is_stmt 0 discriminator 3 view .LVU241
 883 003e B4F90830 		ldrsh	r3, [r4, #8]
 884 0042 07EE903A 		vmov	s15, r3	@ int
  90:Core/Src/MPU9250.c **** 
 885              		.loc 1 90 25 discriminator 3 view .LVU242
 886 0046 F8EEE77A 		vcvt.f32.s32	s15, s15
 887 004a 38EE278A 		vadd.f32	s16, s16, s15
 888              	.LVL71:
  92:Core/Src/MPU9250.c **** 
 889              		.loc 1 92 9 is_stmt 1 discriminator 3 view .LVU243
 890 004e 2046     		mov	r0, r4
 891 0050 FFF7FEFF 		bl	MPU9250_Read_Accelerometer
 892              	.LVL72:
  94:Core/Src/MPU9250.c ****     }
 893              		.loc 1 94 9 discriminator 3 view .LVU244
 894 0054 0A20     		movs	r0, #10
 895 0056 FFF7FEFF 		bl	HAL_Delay
 896              	.LVL73:
  84:Core/Src/MPU9250.c ****     {
 897              		.loc 1 84 31 discriminator 3 view .LVU245
  84:Core/Src/MPU9250.c ****     {
 898              		.loc 1 84 32 is_stmt 0 discriminator 3 view .LVU246
 899 005a 0135     		adds	r5, r5, #1
 900              	.LVL74:
 901              	.L28:
  84:Core/Src/MPU9250.c ****     {
 902              		.loc 1 84 21 is_stmt 1 discriminator 1 view .LVU247
  84:Core/Src/MPU9250.c ****     {
 903              		.loc 1 84 5 is_stmt 0 discriminator 1 view .LVU248
 904 005c B5F5FA6F 		cmp	r5, #2000
 905 0060 DADB     		blt	.L29
 906              	.LBE3:
  97:Core/Src/MPU9250.c ****     dev->gyro_bias_y = avg_gyro_bias_y / 2000;
 907              		.loc 1 97 5 is_stmt 1 view .LVU249
  97:Core/Src/MPU9250.c ****     dev->gyro_bias_y = avg_gyro_bias_y / 2000;
 908              		.loc 1 97 40 is_stmt 0 view .LVU250
 909 0062 DFED0B7A 		vldr.32	s15, .L31+4
 910 0066 89EE277A 		vdiv.f32	s14, s18, s15
  97:Core/Src/MPU9250.c ****     dev->gyro_bias_y = avg_gyro_bias_y / 2000;
 911              		.loc 1 97 22 view .LVU251
 912 006a 84ED037A 		vstr.32	s14, [r4, #12]
  98:Core/Src/MPU9250.c ****     dev->gyro_bias_z = avg_gyro_bias_z / 2000;
 913              		.loc 1 98 5 is_stmt 1 view .LVU252
  98:Core/Src/MPU9250.c ****     dev->gyro_bias_z = avg_gyro_bias_z / 2000;
ARM GAS  C:\Users\user-pc\AppData\Local\Temp\ccOyRBUZ.s 			page 20


 914              		.loc 1 98 40 is_stmt 0 view .LVU253
 915 006e 88EEA77A 		vdiv.f32	s14, s17, s15
  98:Core/Src/MPU9250.c ****     dev->gyro_bias_z = avg_gyro_bias_z / 2000;
 916              		.loc 1 98 22 view .LVU254
 917 0072 84ED047A 		vstr.32	s14, [r4, #16]
  99:Core/Src/MPU9250.c **** 
 918              		.loc 1 99 5 is_stmt 1 view .LVU255
  99:Core/Src/MPU9250.c **** 
 919              		.loc 1 99 40 is_stmt 0 view .LVU256
 920 0076 88EE277A 		vdiv.f32	s14, s16, s15
  99:Core/Src/MPU9250.c **** 
 921              		.loc 1 99 22 view .LVU257
 922 007a 84ED057A 		vstr.32	s14, [r4, #20]
 101:Core/Src/MPU9250.c ****     dev->pitch = dev->accel_angle_deg_y;
 923              		.loc 1 101 5 is_stmt 1 view .LVU258
 101:Core/Src/MPU9250.c ****     dev->pitch = dev->accel_angle_deg_y;
 924              		.loc 1 101 20 is_stmt 0 view .LVU259
 925 007e 236B     		ldr	r3, [r4, #48]	@ float
 101:Core/Src/MPU9250.c ****     dev->pitch = dev->accel_angle_deg_y;
 926              		.loc 1 101 15 view .LVU260
 927 0080 E363     		str	r3, [r4, #60]	@ float
 102:Core/Src/MPU9250.c **** }
 928              		.loc 1 102 5 is_stmt 1 view .LVU261
 102:Core/Src/MPU9250.c **** }
 929              		.loc 1 102 21 is_stmt 0 view .LVU262
 930 0082 636B     		ldr	r3, [r4, #52]	@ float
 102:Core/Src/MPU9250.c **** }
 931              		.loc 1 102 16 view .LVU263
 932 0084 2364     		str	r3, [r4, #64]	@ float
 103:Core/Src/MPU9250.c **** 
 933              		.loc 1 103 1 view .LVU264
 934 0086 BDEC048B 		vldm	sp!, {d8-d9}
 935              	.LCFI25:
 936              		.cfi_restore 82
 937              		.cfi_restore 83
 938              		.cfi_restore 80
 939              		.cfi_restore 81
 940              		.cfi_def_cfa_offset 16
 941              	.LVL75:
 103:Core/Src/MPU9250.c **** 
 942              		.loc 1 103 1 view .LVU265
 943 008a 38BD     		pop	{r3, r4, r5, pc}
 944              	.LVL76:
 945              	.L32:
 103:Core/Src/MPU9250.c **** 
 946              		.loc 1 103 1 view .LVU266
 947              		.align	2
 948              	.L31:
 949 008c 00000000 		.word	0
 950 0090 0000FA44 		.word	1157234688
 951              		.cfi_endproc
 952              	.LFE240:
 954              		.section	.text.MPU9250_Read_Magnetometer,"ax",%progbits
 955              		.align	1
 956              		.global	MPU9250_Read_Magnetometer
 957              		.syntax unified
 958              		.thumb
ARM GAS  C:\Users\user-pc\AppData\Local\Temp\ccOyRBUZ.s 			page 21


 959              		.thumb_func
 960              		.fpu fpv4-sp-d16
 962              	MPU9250_Read_Magnetometer:
 963              	.LVL77:
 964              	.LFB243:
 155:Core/Src/MPU9250.c **** 
 156:Core/Src/MPU9250.c **** void MPU9250_Read_Magnetometer(MPU9250 *dev)
 157:Core/Src/MPU9250.c **** {
 965              		.loc 1 157 1 is_stmt 1 view -0
 966              		.cfi_startproc
 967              		@ args = 0, pretend = 0, frame = 8
 968              		@ frame_needed = 0, uses_anonymous_args = 0
 969              		.loc 1 157 1 is_stmt 0 view .LVU268
 970 0000 10B5     		push	{r4, lr}
 971              	.LCFI26:
 972              		.cfi_def_cfa_offset 8
 973              		.cfi_offset 4, -8
 974              		.cfi_offset 14, -4
 975 0002 2DED0A8B 		vpush.64	{d8, d9, d10, d11, d12}
 976              	.LCFI27:
 977              		.cfi_def_cfa_offset 48
 978              		.cfi_offset 80, -48
 979              		.cfi_offset 81, -44
 980              		.cfi_offset 82, -40
 981              		.cfi_offset 83, -36
 982              		.cfi_offset 84, -32
 983              		.cfi_offset 85, -28
 984              		.cfi_offset 86, -24
 985              		.cfi_offset 87, -20
 986              		.cfi_offset 88, -16
 987              		.cfi_offset 89, -12
 988 0006 82B0     		sub	sp, sp, #8
 989              	.LCFI28:
 990              		.cfi_def_cfa_offset 56
 991 0008 0446     		mov	r4, r0
 158:Core/Src/MPU9250.c ****     uint8_t data[6];
 992              		.loc 1 158 5 is_stmt 1 view .LVU269
 159:Core/Src/MPU9250.c ****     int16_t mag_field_raw_x = 0, mag_field_raw_y = 0, mag_field_raw_z = 0;
 993              		.loc 1 159 5 view .LVU270
 994              	.LVL78:
 160:Core/Src/MPU9250.c ****     float mag_bias_x = 0.f, mag_bias_y = 0.f, mag_bias_z = 0.f,
 995              		.loc 1 160 5 view .LVU271
 161:Core/Src/MPU9250.c ****           mag_scale_x = 0.f, mag_scale_y = 0.f, mag_scale_z = 0.f,
 162:Core/Src/MPU9250.c ****           mag_field_raw_adj_x = 0.f, mag_field_raw_adj_y = 0.f, mag_field_raw_adj_z = 0.f,
 163:Core/Src/MPU9250.c ****           mag_angle_deg_x = 0.f, mag_angle_deg_y = 0.f;
 164:Core/Src/MPU9250.c **** 
 165:Core/Src/MPU9250.c ****     MPU9250_Read_Registers(MPU9250_MAG_ADDR, MPU9250_MAG_REG_HXL, data, sizeof(data));
 996              		.loc 1 165 5 view .LVU272
 997 000a 0623     		movs	r3, #6
 998 000c 6A46     		mov	r2, sp
 999 000e 0321     		movs	r1, #3
 1000 0010 1820     		movs	r0, #24
 1001              	.LVL79:
 1002              		.loc 1 165 5 is_stmt 0 view .LVU273
 1003 0012 FFF7FEFF 		bl	MPU9250_Read_Registers
 1004              	.LVL80:
 166:Core/Src/MPU9250.c **** 
ARM GAS  C:\Users\user-pc\AppData\Local\Temp\ccOyRBUZ.s 			page 22


 167:Core/Src/MPU9250.c ****     mag_field_raw_x = ((int16_t)data[1] << 8) | data[0];
 1005              		.loc 1 167 5 is_stmt 1 view .LVU274
 1006              		.loc 1 167 37 is_stmt 0 view .LVU275
 1007 0016 9DF80130 		ldrb	r3, [sp, #1]	@ zero_extendqisi2
 1008              		.loc 1 167 41 view .LVU276
 1009 001a 1B02     		lsls	r3, r3, #8
 1010              		.loc 1 167 47 view .LVU277
 1011 001c 1BB2     		sxth	r3, r3
 1012              		.loc 1 167 53 view .LVU278
 1013 001e 9DF80020 		ldrb	r2, [sp]	@ zero_extendqisi2
 1014              		.loc 1 167 21 view .LVU279
 1015 0022 1343     		orrs	r3, r3, r2
 1016 0024 09EE103A 		vmov	s18, r3	@ int
 1017              	.LVL81:
 168:Core/Src/MPU9250.c ****     mag_field_raw_y = ((int16_t)data[3] << 8) | data[2];
 1018              		.loc 1 168 5 is_stmt 1 view .LVU280
 1019              		.loc 1 168 37 is_stmt 0 view .LVU281
 1020 0028 9DF80330 		ldrb	r3, [sp, #3]	@ zero_extendqisi2
 1021              		.loc 1 168 41 view .LVU282
 1022 002c 1B02     		lsls	r3, r3, #8
 1023              		.loc 1 168 47 view .LVU283
 1024 002e 1BB2     		sxth	r3, r3
 1025              		.loc 1 168 53 view .LVU284
 1026 0030 9DF80220 		ldrb	r2, [sp, #2]	@ zero_extendqisi2
 1027              		.loc 1 168 21 view .LVU285
 1028 0034 1343     		orrs	r3, r3, r2
 1029 0036 08EE103A 		vmov	s16, r3	@ int
 1030              	.LVL82:
 169:Core/Src/MPU9250.c ****     mag_field_raw_z = ((int16_t)data[5] << 8) | data[4];
 1031              		.loc 1 169 5 is_stmt 1 view .LVU286
 1032              		.loc 1 169 37 is_stmt 0 view .LVU287
 1033 003a 9DF80530 		ldrb	r3, [sp, #5]	@ zero_extendqisi2
 1034              		.loc 1 169 41 view .LVU288
 1035 003e 1B02     		lsls	r3, r3, #8
 1036              		.loc 1 169 47 view .LVU289
 1037 0040 1BB2     		sxth	r3, r3
 1038              		.loc 1 169 53 view .LVU290
 1039 0042 9DF80420 		ldrb	r2, [sp, #4]	@ zero_extendqisi2
 1040              		.loc 1 169 21 view .LVU291
 1041 0046 1343     		orrs	r3, r3, r2
 1042 0048 08EE903A 		vmov	s17, r3	@ int
 1043              	.LVL83:
 170:Core/Src/MPU9250.c **** 
 171:Core/Src/MPU9250.c ****     mag_field_raw_x -= mag_bias_x;
 1044              		.loc 1 171 5 is_stmt 1 view .LVU292
 1045              		.loc 1 171 21 is_stmt 0 view .LVU293
 1046 004c B8EEC99A 		vcvt.f32.s32	s18, s18
 1047              	.LVL84:
 172:Core/Src/MPU9250.c ****     mag_field_raw_y -= mag_bias_y;
 1048              		.loc 1 172 5 is_stmt 1 view .LVU294
 1049              		.loc 1 172 21 is_stmt 0 view .LVU295
 1050 0050 B8EEC88A 		vcvt.f32.s32	s16, s16
 1051              	.LVL85:
 173:Core/Src/MPU9250.c ****     mag_field_raw_z -= mag_bias_z;
 1052              		.loc 1 173 5 is_stmt 1 view .LVU296
 1053              		.loc 1 173 21 is_stmt 0 view .LVU297
 1054 0054 F8EEE87A 		vcvt.f32.s32	s15, s17
ARM GAS  C:\Users\user-pc\AppData\Local\Temp\ccOyRBUZ.s 			page 23


 1055              	.LVL86:
 174:Core/Src/MPU9250.c **** 
 175:Core/Src/MPU9250.c ****     mag_field_raw_adj_x = (float)mag_field_raw_x * ((float)dev->mag_coef_x - 128.f) * 0.5f / 128.f 
 1056              		.loc 1 175 5 is_stmt 1 view .LVU298
 1057              		.loc 1 175 63 is_stmt 0 view .LVU299
 1058 0058 2378     		ldrb	r3, [r4]	@ zero_extendqisi2
 1059              	.LVL87:
 1060              		.loc 1 175 63 view .LVU300
 1061 005a 07EE103A 		vmov	s14, r3	@ int
 1062              		.loc 1 175 53 view .LVU301
 1063 005e B8EE477A 		vcvt.f32.u32	s14, s14
 1064              		.loc 1 175 76 view .LVU302
 1065 0062 DFED3B5A 		vldr.32	s11, .L35
 1066 0066 37EE657A 		vsub.f32	s14, s14, s11
 1067              		.loc 1 175 50 view .LVU303
 1068 006a 29EE079A 		vmul.f32	s18, s18, s14
 1069              		.loc 1 175 85 view .LVU304
 1070 006e B6EE006A 		vmov.f32	s12, #5.0e-1
 1071 0072 29EE069A 		vmul.f32	s18, s18, s12
 1072              		.loc 1 175 92 view .LVU305
 1073 0076 DFED376A 		vldr.32	s13, .L35+4
 1074 007a 29EE269A 		vmul.f32	s18, s18, s13
 1075              		.loc 1 175 25 view .LVU306
 1076 007e F7EE000A 		vmov.f32	s1, #1.0e+0
 1077 0082 39EE209A 		vadd.f32	s18, s18, s1
 1078              	.LVL88:
 176:Core/Src/MPU9250.c ****     mag_field_raw_adj_y = (float)mag_field_raw_y * ((float)dev->mag_coef_y - 128.f) * 0.5f / 128.f 
 1079              		.loc 1 176 5 is_stmt 1 view .LVU307
 1080              		.loc 1 176 63 is_stmt 0 view .LVU308
 1081 0086 6378     		ldrb	r3, [r4, #1]	@ zero_extendqisi2
 1082 0088 07EE103A 		vmov	s14, r3	@ int
 1083              		.loc 1 176 53 view .LVU309
 1084 008c B8EE477A 		vcvt.f32.u32	s14, s14
 1085              		.loc 1 176 76 view .LVU310
 1086 0090 37EE657A 		vsub.f32	s14, s14, s11
 1087              		.loc 1 176 50 view .LVU311
 1088 0094 28EE078A 		vmul.f32	s16, s16, s14
 1089              		.loc 1 176 85 view .LVU312
 1090 0098 28EE068A 		vmul.f32	s16, s16, s12
 1091              		.loc 1 176 92 view .LVU313
 1092 009c 28EE268A 		vmul.f32	s16, s16, s13
 1093              		.loc 1 176 25 view .LVU314
 1094 00a0 38EE208A 		vadd.f32	s16, s16, s1
 1095              	.LVL89:
 177:Core/Src/MPU9250.c ****     mag_field_raw_adj_z = (float)mag_field_raw_z * ((float)dev->mag_coef_z - 128.f) * 0.5f / 128.f 
 1096              		.loc 1 177 5 is_stmt 1 view .LVU315
 1097              		.loc 1 177 63 is_stmt 0 view .LVU316
 1098 00a4 A378     		ldrb	r3, [r4, #2]	@ zero_extendqisi2
 1099 00a6 08EE903A 		vmov	s17, r3	@ int
 1100              	.LVL90:
 1101              		.loc 1 177 53 view .LVU317
 1102 00aa F8EE688A 		vcvt.f32.u32	s17, s17
 1103              		.loc 1 177 76 view .LVU318
 1104 00ae 78EEE58A 		vsub.f32	s17, s17, s11
 1105              		.loc 1 177 50 view .LVU319
 1106 00b2 67EEA88A 		vmul.f32	s17, s15, s17
 1107              		.loc 1 177 85 view .LVU320
ARM GAS  C:\Users\user-pc\AppData\Local\Temp\ccOyRBUZ.s 			page 24


 1108 00b6 68EE868A 		vmul.f32	s17, s17, s12
 1109              		.loc 1 177 92 view .LVU321
 1110 00ba 68EEA68A 		vmul.f32	s17, s17, s13
 1111              		.loc 1 177 25 view .LVU322
 1112 00be 78EEA08A 		vadd.f32	s17, s17, s1
 1113              	.LVL91:
 178:Core/Src/MPU9250.c **** 
 179:Core/Src/MPU9250.c ****     /*mag_field_raw_adj_x = mag_field_raw_adj_x * 0.6f * 0.01f;
 180:Core/Src/MPU9250.c ****     mag_field_raw_adj_y = mag_field_raw_adj_y * 0.6f * 0.01f;
 181:Core/Src/MPU9250.c ****     mag_field_raw_adj_z = mag_field_raw_adj_z * 0.6f * 0.01f;*/
 182:Core/Src/MPU9250.c **** 
 183:Core/Src/MPU9250.c ****     mag_angle_deg_x = mag_field_raw_adj_z * sinf(dev->roll * PI / 180.f) - mag_field_raw_adj_y * co
 1114              		.loc 1 183 5 is_stmt 1 view .LVU323
 1115              		.loc 1 183 53 is_stmt 0 view .LVU324
 1116 00c2 D4ED0F7A 		vldr.32	s15, [r4, #60]
 1117              		.loc 1 183 60 view .LVU325
 1118 00c6 DFED24AA 		vldr.32	s21, .L35+8
 1119 00ca 67EEAA7A 		vmul.f32	s15, s15, s21
 1120              		.loc 1 183 45 view .LVU326
 1121 00ce 9FED23BA 		vldr.32	s22, .L35+12
 1122 00d2 C7EE8B9A 		vdiv.f32	s19, s15, s22
 1123 00d6 B0EE690A 		vmov.f32	s0, s19
 1124 00da FFF7FEFF 		bl	sinf
 1125              	.LVL92:
 1126              		.loc 1 183 45 view .LVU327
 1127 00de B0EE40AA 		vmov.f32	s20, s0
 1128              		.loc 1 183 43 view .LVU328
 1129 00e2 60EE28BA 		vmul.f32	s23, s0, s17
 1130              		.loc 1 183 98 view .LVU329
 1131 00e6 B0EE690A 		vmov.f32	s0, s19
 1132 00ea FFF7FEFF 		bl	cosf
 1133              	.LVL93:
 1134 00ee F0EE409A 		vmov.f32	s19, s0
 1135              		.loc 1 183 96 view .LVU330
 1136 00f2 60EE087A 		vmul.f32	s15, s0, s16
 1137              		.loc 1 183 21 view .LVU331
 1138 00f6 7BEEE7BA 		vsub.f32	s23, s23, s15
 1139              	.LVL94:
 184:Core/Src/MPU9250.c ****     mag_angle_deg_y = mag_field_raw_adj_x * cosf(dev->pitch * PI / 180.f) + mag_field_raw_adj_y * s
 1140              		.loc 1 184 5 is_stmt 1 view .LVU332
 1141              		.loc 1 184 53 is_stmt 0 view .LVU333
 1142 00fa D4ED107A 		vldr.32	s15, [r4, #64]
 1143              		.loc 1 184 61 view .LVU334
 1144 00fe 67EEAA7A 		vmul.f32	s15, s15, s21
 1145              		.loc 1 184 45 view .LVU335
 1146 0102 87EE8BCA 		vdiv.f32	s24, s15, s22
 1147 0106 B0EE4C0A 		vmov.f32	s0, s24
 1148 010a FFF7FEFF 		bl	cosf
 1149              	.LVL95:
 1150              		.loc 1 184 43 view .LVU336
 1151 010e 20EE099A 		vmul.f32	s18, s0, s18
 1152              	.LVL96:
 1153              		.loc 1 184 99 view .LVU337
 1154 0112 B0EE4C0A 		vmov.f32	s0, s24
 1155 0116 FFF7FEFF 		bl	sinf
 1156              	.LVL97:
 1157              		.loc 1 184 97 view .LVU338
ARM GAS  C:\Users\user-pc\AppData\Local\Temp\ccOyRBUZ.s 			page 25


 1158 011a 20EE088A 		vmul.f32	s16, s0, s16
 1159              	.LVL98:
 1160              		.loc 1 184 129 view .LVU339
 1161 011e 2AEE08AA 		vmul.f32	s20, s20, s16
 1162              		.loc 1 184 75 view .LVU340
 1163 0122 39EE0A9A 		vadd.f32	s18, s18, s20
 1164              		.loc 1 184 182 view .LVU341
 1165 0126 20EE280A 		vmul.f32	s0, s0, s17
 1166              		.loc 1 184 214 view .LVU342
 1167 012a 29EE800A 		vmul.f32	s0, s19, s0
 1168              	.LVL99:
 185:Core/Src/MPU9250.c ****     dev->mag_angle_deg_z = atan2f(mag_angle_deg_x, mag_angle_deg_y) * 180.f / PI;
 1169              		.loc 1 185 5 is_stmt 1 view .LVU343
 1170              		.loc 1 185 28 is_stmt 0 view .LVU344
 1171 012e 79EE000A 		vadd.f32	s1, s18, s0
 1172              	.LVL100:
 1173              		.loc 1 185 28 view .LVU345
 1174 0132 B0EE6B0A 		vmov.f32	s0, s23
 1175 0136 FFF7FEFF 		bl	atan2f
 1176              	.LVL101:
 1177              		.loc 1 185 69 view .LVU346
 1178 013a 20EE0BBA 		vmul.f32	s22, s0, s22
 1179              		.loc 1 185 77 view .LVU347
 1180 013e CBEE2A7A 		vdiv.f32	s15, s22, s21
 1181              		.loc 1 185 26 view .LVU348
 1182 0142 C4ED0E7A 		vstr.32	s15, [r4, #56]
 186:Core/Src/MPU9250.c **** }
 1183              		.loc 1 186 1 view .LVU349
 1184 0146 02B0     		add	sp, sp, #8
 1185              	.LCFI29:
 1186              		.cfi_def_cfa_offset 48
 1187              		@ sp needed
 1188 0148 BDEC0A8B 		vldm	sp!, {d8-d12}
 1189              	.LCFI30:
 1190              		.cfi_restore 88
 1191              		.cfi_restore 89
 1192              		.cfi_restore 86
 1193              		.cfi_restore 87
 1194              		.cfi_restore 84
 1195              		.cfi_restore 85
 1196              		.cfi_restore 82
 1197              		.cfi_restore 83
 1198              		.cfi_restore 80
 1199              		.cfi_restore 81
 1200              		.cfi_def_cfa_offset 8
 1201              		.loc 1 186 1 view .LVU350
 1202 014c 10BD     		pop	{r4, pc}
 1203              	.LVL102:
 1204              	.L36:
 1205              		.loc 1 186 1 view .LVU351
 1206 014e 00BF     		.align	2
 1207              	.L35:
 1208 0150 00000043 		.word	1124073472
 1209 0154 0000003C 		.word	1006632960
 1210 0158 D80F4940 		.word	1078530008
 1211 015c 00003443 		.word	1127481344
 1212              		.cfi_endproc
ARM GAS  C:\Users\user-pc\AppData\Local\Temp\ccOyRBUZ.s 			page 26


 1213              	.LFE243:
 1215              		.text
 1216              	.Letext0:
 1217              		.file 2 "c:\\program files (x86)\\gnu arm embedded toolchain\\10 2020-q4-major\\arm-none-eabi\\inc
 1218              		.file 3 "c:\\program files (x86)\\gnu arm embedded toolchain\\10 2020-q4-major\\arm-none-eabi\\inc
 1219              		.file 4 "Drivers/CMSIS/Device/ST/STM32F4xx/Include/stm32f405xx.h"
 1220              		.file 5 "Drivers/STM32F4xx_HAL_Driver/Inc/stm32f4xx_hal_def.h"
 1221              		.file 6 "Drivers/STM32F4xx_HAL_Driver/Inc/stm32f4xx_hal_dma.h"
 1222              		.file 7 "Drivers/STM32F4xx_HAL_Driver/Inc/stm32f4xx_hal_i2c.h"
 1223              		.file 8 "Core/Inc/MPU9250.h"
 1224              		.file 9 "Core/Inc/i2c.h"
 1225              		.file 10 "c:\\program files (x86)\\gnu arm embedded toolchain\\10 2020-q4-major\\arm-none-eabi\\in
 1226              		.file 11 "Drivers/STM32F4xx_HAL_Driver/Inc/stm32f4xx_hal.h"
ARM GAS  C:\Users\user-pc\AppData\Local\Temp\ccOyRBUZ.s 			page 27

